target datalayout = "e-m:e-p270:32:32-p271:32:32-p272:64:64-i64:64-i128:128-f80:128-n8:16:32:64-S128"
target triple = "x86_64-pc-linux-gnu"

%"class.std::filesystem::__cxx11::path" = type { %"class.std::__cxx11::basic_string", %"struct.std::filesystem::__cxx11::path::_List" }
%"class.std::__cxx11::basic_string" = type { %"struct.std::__cxx11::basic_string<char>::_Alloc_hider", i64, %union.anon.0 }
%"struct.std::__cxx11::basic_string<char>::_Alloc_hider" = type { ptr }
%union.anon.0 = type { i64, [8 x i8] }
%"struct.std::filesystem::__cxx11::path::_List" = type { %"class.std::unique_ptr" }
%"class.std::unique_ptr" = type { %"struct.std::__uniq_ptr_data" }
%"struct.std::__uniq_ptr_data" = type { %"class.std::__uniq_ptr_impl" }
%"class.std::__uniq_ptr_impl" = type { %"class.std::tuple" }
%"class.std::tuple" = type { %"struct.std::_Tuple_impl" }
%"struct.std::_Tuple_impl" = type { %"struct.std::_Head_base.2" }
%"struct.std::_Head_base.2" = type { ptr }
%struct.t_pargs = type { ptr, i8, i32, %union.anon, ptr }
%union.anon = type { ptr }

@.str = private unnamed_addr constant [127 x i8] c"generated/home/dtcxzyw/WorkSpace/Projects/compilers/llvm-opt-benchmark/bench/gromacs/gromacs/src/gromacs/commandline/pargs.cpp\00", align 1
@.str.5 = private unnamed_addr constant [27 x i8] c"No such option %s in pargs\00", align 1

; Function Attrs: mustprogress uwtable
define noundef zeroext i1 @_Z13opt2parg_bSetPKciPK7t_pargs(ptr noundef %0, i32 noundef %1, ptr noundef %2) #1 personality ptr @__gxx_personality_v0 {
  %4 = alloca ptr, align 8
  %5 = alloca i32, align 4
  %6 = alloca ptr, align 8
  %7 = alloca i32, align 4
  %8 = alloca %"class.std::filesystem::__cxx11::path", align 8
  %9 = alloca ptr, align 8
  %10 = alloca i32, align 4
  store ptr %0, ptr %4, align 8
  store i32 %1, ptr %5, align 4
  store ptr %2, ptr %6, align 8
  store i32 0, ptr %7, align 4
  br label %11

11:                                               ; preds = %34, %3
  %12 = load i32, ptr %7, align 4
  %13 = load i32, ptr %5, align 4
  %14 = icmp slt i32 %12, %13
  br i1 %14, label %15, label %37

15:                                               ; preds = %11
  %16 = load ptr, ptr %6, align 8
  %17 = load i32, ptr %7, align 4
  %18 = sext i32 %17 to i64
  %19 = getelementptr inbounds %struct.t_pargs, ptr %16, i64 %18
  %20 = getelementptr inbounds %struct.t_pargs, ptr %19, i32 0, i32 0
  %21 = load ptr, ptr %20, align 8
  %22 = load ptr, ptr %4, align 8
  %23 = call i32 @strcmp(ptr noundef %21, ptr noundef %22) #12
  %24 = icmp eq i32 %23, 0
  br i1 %24, label %25, label %33

25:                                               ; preds = %15
  %26 = load ptr, ptr %6, align 8
  %27 = load i32, ptr %7, align 4
  %28 = sext i32 %27 to i64
  %29 = getelementptr inbounds %struct.t_pargs, ptr %26, i64 %28
  %30 = getelementptr inbounds %struct.t_pargs, ptr %29, i32 0, i32 1
  %31 = load i8, ptr %30, align 8
  %32 = trunc i8 %31 to i1
  ret i1 %32

33:                                               ; preds = %15
  br label %34

34:                                               ; preds = %33
  %35 = load i32, ptr %7, align 4
  %36 = add nsw i32 %35, 1
  store i32 %36, ptr %7, align 4
  br label %11, !llvm.loop !11

37:                                               ; preds = %11
  call void @_ZNSt10filesystem7__cxx114pathC2IA127_cS1_EERKT_NS1_6formatE(ptr noundef nonnull align 8 dereferenceable(40) %8, ptr noundef nonnull align 1 dereferenceable(127) @.str, i8 noundef zeroext 2)
  %38 = load ptr, ptr %4, align 8
  invoke void (i32, ptr, i32, ptr, ...) @_Z9gmx_fataliRKNSt10filesystem7__cxx114pathEiPKcz(i32 noundef 0, ptr noundef nonnull align 8 dereferenceable(40) %8, i32 noundef 157, ptr noundef @.str.5, ptr noundef %38) #13
          to label %39 unwind label %40

39:                                               ; preds = %37
  unreachable

40:                                               ; preds = %37
  %41 = landingpad { ptr, i32 }
          cleanup
  %42 = extractvalue { ptr, i32 } %41, 0
  store ptr %42, ptr %9, align 8
  %43 = extractvalue { ptr, i32 } %41, 1
  store i32 %43, ptr %10, align 4
  call void @_ZNSt10filesystem7__cxx114pathD2Ev(ptr noundef nonnull align 8 dereferenceable(40) %8) #14
  br label %44

44:                                               ; preds = %40
  %45 = load ptr, ptr %9, align 8
  %46 = load i32, ptr %10, align 4
  %47 = insertvalue { ptr, i32 } poison, ptr %45, 0
  %48 = insertvalue { ptr, i32 } %47, i32 %46, 1
  resume { ptr, i32 } %48
}